; Function Attrs: mustprogress nofree norecurse nosync nounwind willreturn memory(argmem: read) uwtable
define internal i32 @spl_ptr_pqueue_elem_cmp_double(ptr nocapture noundef readonly %0, ptr nocapture noundef readonly %1, ptr nocapture readnone %2) #3 {
  %4 = getelementptr inbounds i8, ptr %0, i64 16
  %5 = load double, ptr %4, align 8
  %6 = getelementptr inbounds i8, ptr %1, i64 16
  %7 = load double, ptr %6, align 8
  %8 = fcmp oeq double %5, %7
  %9 = fcmp olt double %5, %7
  %10 = select i1 %9, i32 -1, i32 1
  %11 = select i1 %8, i32 0, i32 %10
  ret i32 %11
}